target datalayout = "e-m:e-p270:32:32-p271:32:32-p272:64:64-i64:64-i128:128-f80:128-n8:16:32:64-S128"
target triple = "x86_64-pc-linux-gnu"

%"class.ncnn::PoolAllocator" = type { %"class.ncnn::Allocator", ptr }
%"class.ncnn::Allocator" = type { ptr }
%"class.ncnn::PoolAllocatorPrivate" = type { %"class.ncnn::Mutex", %"class.ncnn::Mutex", i32, i64, %"class.std::__cxx11::list", %"class.std::__cxx11::list" }
%"class.ncnn::Mutex" = type { %union.pthread_mutex_t }
%union.pthread_mutex_t = type { %struct.__pthread_mutex_s }
%struct.__pthread_mutex_s = type { i32, i32, i32, i32, i32, i16, i16, %struct.__pthread_internal_list }
%struct.__pthread_internal_list = type { ptr, ptr }
%"class.std::__cxx11::list" = type { %"class.std::__cxx11::_List_base" }
%"class.std::__cxx11::_List_base" = type { %"struct.std::__cxx11::_List_base<std::pair<unsigned long, void *>, std::allocator<std::pair<unsigned long, void *>>>::_List_impl" }
%"struct.std::__cxx11::_List_base<std::pair<unsigned long, void *>, std::allocator<std::pair<unsigned long, void *>>>::_List_impl" = type { %"struct.std::__detail::_List_node_header" }
%"struct.std::__detail::_List_node_header" = type { %"struct.std::__detail::_List_node_base", i64 }
%"struct.std::__detail::_List_node_base" = type { ptr, ptr }

@stderr = external global ptr, align 8
@.str.1 = private unnamed_addr constant [2 x i8] c"\0A\00", align 1
@.str.3 = private unnamed_addr constant [30 x i8] c"invalid size compare ratio %f\00", align 1

; Function Attrs: mustprogress nounwind uwtable
define hidden void @_ZN4ncnn13PoolAllocator22set_size_compare_ratioEf(ptr noundef nonnull align 8 dereferenceable(16) %0, float noundef nofpclass(nan inf) %1) #0 align 2 {
  %3 = alloca ptr, align 8
  %4 = alloca float, align 4
  store ptr %0, ptr %3, align 8, !tbaa !9
  store float %1, ptr %4, align 4, !tbaa !82
  %5 = load ptr, ptr %3, align 8
  %6 = load float, ptr %4, align 4, !tbaa !82
  %7 = fcmp fast olt float %6, 0.000000e+00
  br i1 %7, label %11, label %8

8:                                                ; preds = %2
  %9 = load float, ptr %4, align 4, !tbaa !82
  %10 = fcmp fast ogt float %9, 1.000000e+00
  br i1 %10, label %11, label %20

11:                                               ; preds = %8, %2
  br label %12

12:                                               ; preds = %11
  %13 = load ptr, ptr @stderr, align 8, !tbaa !37
  %14 = load float, ptr %4, align 4, !tbaa !82
  %15 = fpext fast float %14 to double
  %16 = call i32 (ptr, ptr, ...) @fprintf(ptr noundef %13, ptr noundef @.str.3, double noundef nofpclass(nan inf) %15) #16
  %17 = load ptr, ptr @stderr, align 8, !tbaa !37
  %18 = call i32 (ptr, ptr, ...) @fprintf(ptr noundef %17, ptr noundef @.str.1) #16
  br label %19

19:                                               ; preds = %12
  br label %27

20:                                               ; preds = %8
  %21 = load float, ptr %4, align 4, !tbaa !82
  %22 = fmul fast float %21, 2.560000e+02
  %23 = fptoui float %22 to i32
  %24 = getelementptr inbounds nuw %"class.ncnn::PoolAllocator", ptr %5, i32 0, i32 1
  %25 = load ptr, ptr %24, align 8, !tbaa !13
  %26 = getelementptr inbounds nuw %"class.ncnn::PoolAllocatorPrivate", ptr %25, i32 0, i32 2
  store i32 %23, ptr %26, align 8, !tbaa !19
  br label %27

27:                                               ; preds = %20, %19
  ret void
}