; Function Attrs: mustprogress nofree nounwind uwtable
define hidden void @_ZN4ncnn13PoolAllocator22set_size_compare_ratioEf(ptr noundef nonnull readonly align 8 captures(none) dereferenceable(16) %0, float noundef nofpclass(nan inf) %1) local_unnamed_addr #12 align 2 {
  %3 = fcmp fast olt float %1, 0.000000e+00
  %4 = fcmp fast ogt float %1, 1.000000e+00
  %or.cond = select i1 %3, i1 true, i1 %4
  br i1 %or.cond, label %5, label %10

5:                                                ; preds = %2
  %6 = load ptr, ptr @stderr, align 8, !tbaa !32
  %7 = fpext fast float %1 to double
  %8 = tail call i32 (ptr, ptr, ...) @fprintf(ptr noundef %6, ptr noundef nonnull @.str.3, double noundef nofpclass(nan inf) %7) #19
  %9 = load ptr, ptr @stderr, align 8, !tbaa !32
  %fputc = tail call i32 @fputc(i32 10, ptr %9)
  br label %16

10:                                               ; preds = %2
  %11 = fmul fast float %1, 2.560000e+02
  %12 = fptoui float %11 to i32
  %13 = getelementptr inbounds nuw i8, ptr %0, i64 8
  %14 = load ptr, ptr %13, align 8, !tbaa !4
  %15 = getelementptr inbounds nuw i8, ptr %14, i64 80
  store i32 %12, ptr %15, align 8, !tbaa !17
  br label %16

16:                                               ; preds = %10, %5
  ret void
}